; Function Attrs: mustprogress uwtable
define hidden void @_ZN4cvc58internal6theory24InferenceManagerBuffered15addPendingLemmaESt10unique_ptrINS1_15TheoryInferenceESt14default_deleteIS4_EE(ptr noundef nonnull align 8 dereferenceable(337) %0, ptr noundef %1) local_unnamed_addr #3 align 2 {
  %3 = getelementptr inbounds nuw i8, ptr %0, i64 248
  %4 = load ptr, ptr %3, align 8, !tbaa !71
  %5 = getelementptr inbounds nuw i8, ptr %0, i64 256
  %6 = load ptr, ptr %5, align 8, !tbaa !72
  %.not.i = icmp eq ptr %4, %6
  br i1 %.not.i, label %10, label %7

7:                                                ; preds = %2
  %8 = load i64, ptr %1, align 8, !tbaa !73
  store i64 %8, ptr %4, align 8, !tbaa !73
  store ptr null, ptr %1, align 8, !tbaa !73
  %9 = getelementptr inbounds nuw i8, ptr %4, i64 8
  store ptr %9, ptr %3, align 8, !tbaa !71
  br label %_ZNSt6vectorISt10unique_ptrIN4cvc58internal6theory15TheoryInferenceESt14default_deleteIS4_EESaIS7_EE12emplace_backIJS7_EEERS7_DpOT_.exit

10:                                               ; preds = %2
  %11 = getelementptr inbounds nuw i8, ptr %0, i64 240
  tail call void @_ZNSt6vectorISt10unique_ptrIN4cvc58internal6theory15TheoryInferenceESt14default_deleteIS4_EESaIS7_EE17_M_realloc_insertIJS7_EEEvN9__gnu_cxx17__normal_iteratorIPS7_S9_EEDpOT_(ptr noundef nonnull align 8 dereferenceable(24) %11, ptr %4, ptr noundef nonnull align 8 dereferenceable(8) %1)
  br label %_ZNSt6vectorISt10unique_ptrIN4cvc58internal6theory15TheoryInferenceESt14default_deleteIS4_EESaIS7_EE12emplace_backIJS7_EEERS7_DpOT_.exit

_ZNSt6vectorISt10unique_ptrIN4cvc58internal6theory15TheoryInferenceESt14default_deleteIS4_EESaIS7_EE12emplace_backIJS7_EEERS7_DpOT_.exit: ; preds = %7, %10
  ret void
}